; Function Attrs: mustprogress nofree norecurse nosync nounwind willreturn memory(argmem: readwrite, inaccessiblemem: write) uwtable
define dso_local void @_ZN4Luau19EqSatSimplification5SubstC2ENS_5EqSat2IdES3_NSt7__cxx1112basic_stringIcSt11char_traitsIcESaIcEEE(ptr noundef nonnull align 8 dereferenceable(56) initializes((0, 8), (16, 17)) %0, i32 %1, i32 %2, ptr noundef %3) unnamed_addr #15 align 2 personality ptr @__gxx_personality_v0 {
  store i32 %1, ptr %0, align 8, !tbaa !4
  %5 = getelementptr inbounds nuw i8, ptr %0, i64 4
  store i32 %2, ptr %5, align 4, !tbaa !4
  %6 = getelementptr inbounds nuw i8, ptr %0, i64 16
  store i8 0, ptr %6, align 8, !tbaa !390
  %7 = getelementptr inbounds nuw i8, ptr %0, i64 24
  %8 = getelementptr inbounds nuw i8, ptr %0, i64 40
  store ptr %8, ptr %7, align 8, !tbaa !58
  %9 = load ptr, ptr %3, align 8, !tbaa !60
  %10 = getelementptr inbounds nuw i8, ptr %3, i64 16
  %11 = icmp eq ptr %9, %10
  br i1 %11, label %12, label %_ZNKSt7__cxx1112basic_stringIcSt11char_traitsIcESaIcEE11_M_is_localEv.exit.i

12:                                               ; preds = %4
  %13 = getelementptr inbounds nuw i8, ptr %3, i64 8
  %14 = load i64, ptr %13, align 8, !tbaa !63
  %15 = icmp ult i64 %14, 16
  tail call void @llvm.assume(i1 %15)
  %16 = add nuw nsw i64 %14, 1
  tail call void @llvm.memcpy.p0.p0.i64(ptr noundef nonnull align 8 dereferenceable(1) %8, ptr noundef nonnull align 8 dereferenceable(1) %10, i64 %16, i1 false)
  br label %_ZNSt7__cxx1112basic_stringIcSt11char_traitsIcESaIcEEC2EOS4_.exit

_ZNKSt7__cxx1112basic_stringIcSt11char_traitsIcESaIcEE11_M_is_localEv.exit.i: ; preds = %4
  store ptr %9, ptr %7, align 8, !tbaa !60
  %17 = load i64, ptr %10, align 8, !tbaa !62
  store i64 %17, ptr %8, align 8, !tbaa !62
  br label %_ZNSt7__cxx1112basic_stringIcSt11char_traitsIcESaIcEEC2EOS4_.exit

_ZNSt7__cxx1112basic_stringIcSt11char_traitsIcESaIcEEC2EOS4_.exit: ; preds = %12, %_ZNKSt7__cxx1112basic_stringIcSt11char_traitsIcESaIcEE11_M_is_localEv.exit.i
  %18 = getelementptr inbounds nuw i8, ptr %3, i64 8
  %19 = load i64, ptr %18, align 8, !tbaa !63
  %20 = getelementptr inbounds nuw i8, ptr %0, i64 32
  store i64 %19, ptr %20, align 8, !tbaa !63
  store ptr %10, ptr %3, align 8, !tbaa !60
  store i64 0, ptr %18, align 8, !tbaa !63
  store i8 0, ptr %10, align 1, !tbaa !62
  ret void
}